target datalayout = "e-m:e-p270:32:32-p271:32:32-p272:64:64-i64:64-i128:128-f80:128-n8:16:32:64-S128"
target triple = "x86_64-unknown-linux-gnu"

@.str.1 = private unnamed_addr constant [14 x i8] c"<LogTransform\00", align 1
@.str.2 = private unnamed_addr constant [12 x i8] c" direction=\00", align 1
@.str.3 = private unnamed_addr constant [8 x i8] c", base=\00", align 1
@.str.4 = private unnamed_addr constant [2 x i8] c">\00", align 1

; Function Attrs: mustprogress uwtable
define noundef nonnull align 8 dereferenceable(8) ptr @_ZN19OpenColorIO_v2_4devlsERSoRKNS_12LogTransformE(ptr noundef nonnull align 8 dereferenceable(8) %os, ptr noundef nonnull align 8 dereferenceable(8) %t) #0 {
entry:
  %os.addr = alloca ptr, align 8
  %t.addr = alloca ptr, align 8
  store ptr %os, ptr %os.addr, align 8
  store ptr %t, ptr %t.addr, align 8
  %0 = load ptr, ptr %os.addr, align 8
  %call = call noundef nonnull align 8 dereferenceable(8) ptr @_ZStlsISt11char_traitsIcEERSt13basic_ostreamIcT_ES5_PKc(ptr noundef nonnull align 8 dereferenceable(8) %0, ptr noundef @.str.1)
  %1 = load ptr, ptr %os.addr, align 8
  %call1 = call noundef nonnull align 8 dereferenceable(8) ptr @_ZStlsISt11char_traitsIcEERSt13basic_ostreamIcT_ES5_PKc(ptr noundef nonnull align 8 dereferenceable(8) %1, ptr noundef @.str.2)
  %2 = load ptr, ptr %t.addr, align 8
  %vtable = load ptr, ptr %2, align 8
  %vfn = getelementptr inbounds ptr, ptr %vtable, i64 1
  %3 = load ptr, ptr %vfn, align 8
  %call2 = call noundef i32 %3(ptr noundef nonnull align 8 dereferenceable(8) %2) #14
  %call3 = call noundef ptr @_ZN19OpenColorIO_v2_4dev26TransformDirectionToStringENS_18TransformDirectionE(i32 noundef %call2)
  %call4 = call noundef nonnull align 8 dereferenceable(8) ptr @_ZStlsISt11char_traitsIcEERSt13basic_ostreamIcT_ES5_PKc(ptr noundef nonnull align 8 dereferenceable(8) %call1, ptr noundef %call3)
  %4 = load ptr, ptr %os.addr, align 8
  %call5 = call noundef nonnull align 8 dereferenceable(8) ptr @_ZStlsISt11char_traitsIcEERSt13basic_ostreamIcT_ES5_PKc(ptr noundef nonnull align 8 dereferenceable(8) %4, ptr noundef @.str.3)
  %5 = load ptr, ptr %t.addr, align 8
  %vtable6 = load ptr, ptr %5, align 8
  %vfn7 = getelementptr inbounds ptr, ptr %vtable6, i64 10
  %6 = load ptr, ptr %vfn7, align 8
  %call8 = call noundef double %6(ptr noundef nonnull align 8 dereferenceable(8) %5) #14
  %call9 = call noundef nonnull align 8 dereferenceable(8) ptr @_ZNSolsEd(ptr noundef nonnull align 8 dereferenceable(8) %call5, double noundef %call8)
  %7 = load ptr, ptr %os.addr, align 8
  %call10 = call noundef nonnull align 8 dereferenceable(8) ptr @_ZStlsISt11char_traitsIcEERSt13basic_ostreamIcT_ES5_PKc(ptr noundef nonnull align 8 dereferenceable(8) %7, ptr noundef @.str.4)
  %8 = load ptr, ptr %os.addr, align 8
  ret ptr %8
}